(lp0
S'poi'
p1
aS'bonus'
p2
aS'long_term_incentive'
p3
aS'total_stock_value'
p4
aS'total_payments'
p5
aS'director_fees'
p6
aS'shared_receipt_with_poi'
p7
aS'restricted_stock_deferred'
p8
aS'exercised_stock_options'
p9
aS'from_this_person_to_poi'
p10
aS'fraction_to_from_poi'
p11
aS'restricted_stock'
p12
aS'from_poi_to_this_person'
p13
aS'expenses'
p14
aS'deferred_income'
p15
a.